
 Start Length Name Class
 0001:00401000 000000F00H _TEXT                  CODE


Detailed map of segments
 0001:00000100 00000800 C=CODE    S=_TEXT    G=(none)   M=C:\TEST\FOO.OBJ ACBP=A9
 0001:00000900 00000700 C=CODE    S=_TEXT    G=(none)   M=C:\TEST\BAR.OBJ ACBP=A9

 Address Publics by Name

 0001:00000100  skip::this

 Address Publics by Value

 0001:00000000  test::testproc0
 0001:00000008  test::testproc1
 0001:00000010  test::testproc2
 0001:00000018  test::testproc3
 0001:00000020  test::testproc4
 0001:00000028  test::testproc5
 0001:00000030  test::testproc6
 0001:00000038  test::testproc7
 0001:00000040  test::testproc8
 0001:00000048  test::testproc9
 0001:00000050  test::testproc10
 0001:00000058  test::testproc11
 0001:00000060  test::testproc12
 0001:00000068  test::testproc13
 0001:00000070  test::testproc14
 0001:00000078  test::testproc15
 0001:00000080  test::testproc16
 0001:00000088  test::testproc17
 0001:00000090  test::testproc18
 0001:00000098  test::testproc19
 0001:000000A0  test::testproc20
 0001:000000A8  test::testproc21
 0001:000000B0  test::testproc22
 0001:000000B8  test::testproc23
 0001:000000C0  test::testproc24
 0001:000000C8  test::testproc25
 0001:000000D0  test::testproc26
 0001:000000D8  test::testproc27
 0001:000000E0  test::testproc28
 0001:000000E8  test::testproc29
 0001:000000F0  test::testproc30
 0001:000000F8  test::testproc31
 0001:00000100  test::testproc32
 0001:00000108  test::testproc33
 0001:00000110  test::testproc34
 0001:00000118  test::testproc35
 0001:00000120  test::testproc36
 0001:00000128  test::testproc37
 0001:00000130  test::testproc38
 0001:00000138  test::testproc39
 0001:00000140  test::testproc40
 0001:00000148  test::testproc41
 0001:00000150  test::testproc42
 0001:00000158  test::testproc43
 0001:00000160  test::testproc44
 0001:00000168  test::testproc45
 0001:00000170  test::testproc46
 0001:00000178  test::testproc47
 0001:00000180  test::testproc48
 0001:00000188  test::testproc49
 0001:00000190  test::testproc50
 0001:00000198  test::testproc51
 0001:000001A0  test::testproc52
 0001:000001A8  test::testproc53
 0001:000001B0  test::testproc54
 0001:000001B8  test::testproc55
 0001:000001C0  test::testproc56
 0001:000001C8  test::testproc57
 0001:000001D0  test::testproc58
 0001:000001D8  test::testproc59
 0001:000001E0  test::testproc60
 0001:000001E8  test::testproc61
 0001:000001F0  test::testproc62
 0001:000001F8  test::testproc63
 0001:00000200  test::testproc64
 0001:00000208  test::testproc65
 0001:00000210  test::testproc66
 0001:00000218  test::testproc67
 0001:00000220  test::testproc68
 0001:00000228  test::testproc69
 0001:00000230  test::testproc70
 0001:00000238  test::testproc71
 0001:00000240  test::testproc72
 0001:00000248  test::testproc73
 0001:00000250  test::testproc74
 0001:00000258  test::testproc75
 0001:00000260  test::testproc76
 0001:00000268  test::testproc77
 0001:00000270  test::testproc78
 0001:00000278  test::testproc79
 0001:00000280  test::testproc80
 0001:00000288  test::testproc81
 0001:00000290  test::testproc82
 0001:00000298  test::testproc83
 0001:000002A0  test::testproc84
 0001:000002A8  test::testproc85
 0001:000002B0  test::testproc86
 0001:000002B8  test::testproc87
 0001:000002C0  test::testproc88
 0001:000002C8  test::testproc89
 0001:000002D0  test::testproc90
 0001:000002D8  test::testproc91
 0001:000002E0  test::testproc92
 0001:000002E8  test::testproc93
 0001:000002F0  test::testproc94
 0001:000002F8  test::testproc95
 0001:00000300  test::testproc96
 0001:00000308  test::testproc97
 0001:00000310  test::testproc98
 0001:00000318  test::testproc99
 0001:00000320  test::testproc100
 0001:00000328  test::testproc101
 0001:00000330  test::testproc102
 0001:00000338  test::testproc103
 0001:00000340  test::testproc104
 0001:00000348  test::testproc105
 0001:00000350  test::testproc106
 0001:00000358  test::testproc107_with_chars__
 0001:00000900  test::this_is_the_last_proc
